target datalayout = "e-m:e-p270:32:32-p271:32:32-p272:64:64-i64:64-i128:128-f80:128-n8:16:32:64-S128"
target triple = "x86_64-pc-linux-gnu"

@PyExc_OverflowError = external global ptr, align 8
@.str.15 = private unnamed_addr constant [18 x i8] c"mode out of range\00", align 1

; Function Attrs: nounwind uwtable
define internal i32 @_PyLong_AsMode_t(ptr noundef %0) #0 {
  %2 = alloca i32, align 4
  %3 = alloca ptr, align 8
  %4 = alloca i64, align 8
  %5 = alloca i32, align 4
  %6 = alloca i32, align 4
  store ptr %0, ptr %3, align 8, !tbaa !4
  call void @llvm.lifetime.start.p0(i64 8, ptr %4) #4
  call void @llvm.lifetime.start.p0(i64 4, ptr %5) #4
  %7 = load ptr, ptr %3, align 8, !tbaa !4
  %8 = call i64 @PyLong_AsUnsignedLong(ptr noundef %7)
  store i64 %8, ptr %4, align 8, !tbaa !12
  %9 = load i64, ptr %4, align 8, !tbaa !12
  %10 = icmp eq i64 %9, -1
  br i1 %10, label %11, label %15

11:                                               ; preds = %1
  %12 = call ptr @PyErr_Occurred()
  %13 = icmp ne ptr %12, null
  br i1 %13, label %14, label %15

14:                                               ; preds = %11
  store i32 -1, ptr %2, align 4
  store i32 1, ptr %6, align 4
  br label %26

15:                                               ; preds = %11, %1
  %16 = load i64, ptr %4, align 8, !tbaa !12
  %17 = trunc i64 %16 to i32
  store i32 %17, ptr %5, align 4, !tbaa !9
  %18 = load i32, ptr %5, align 4, !tbaa !9
  %19 = zext i32 %18 to i64
  %20 = load i64, ptr %4, align 8, !tbaa !12
  %21 = icmp ne i64 %19, %20
  br i1 %21, label %22, label %24

22:                                               ; preds = %15
  %23 = load ptr, ptr @PyExc_OverflowError, align 8, !tbaa !4
  call void @PyErr_SetString(ptr noundef %23, ptr noundef @.str.15)
  store i32 -1, ptr %2, align 4
  store i32 1, ptr %6, align 4
  br label %26

24:                                               ; preds = %15
  %25 = load i32, ptr %5, align 4, !tbaa !9
  store i32 %25, ptr %2, align 4
  store i32 1, ptr %6, align 4
  br label %26

26:                                               ; preds = %24, %22, %14
  call void @llvm.lifetime.end.p0(i64 4, ptr %5) #4
  call void @llvm.lifetime.end.p0(i64 8, ptr %4) #4
  %27 = load i32, ptr %2, align 4
  ret i32 %27
}

; Function Attrs: nounwind uwtable
define internal ptr @stat_S_IMODE(ptr noundef %0, ptr noundef %1) #0 {
  %3 = alloca ptr, align 8
  %4 = alloca ptr, align 8
  %5 = alloca ptr, align 8
  %6 = alloca i32, align 4
  %7 = alloca i32, align 4
  store ptr %0, ptr %4, align 8, !tbaa !4
  store ptr %1, ptr %5, align 8, !tbaa !4
  call void @llvm.lifetime.start.p0(i64 4, ptr %6) #4
  %8 = load ptr, ptr %5, align 8, !tbaa !4
  %9 = call i32 @_PyLong_AsMode_t(ptr noundef %8)
  store i32 %9, ptr %6, align 4, !tbaa !9
  %10 = load i32, ptr %6, align 4, !tbaa !9
  %11 = icmp eq i32 %10, -1
  br i1 %11, label %12, label %16

12:                                               ; preds = %2
  %13 = call ptr @PyErr_Occurred()
  %14 = icmp ne ptr %13, null
  br i1 %14, label %15, label %16

15:                                               ; preds = %12
  store ptr null, ptr %3, align 8
  store i32 1, ptr %7, align 4
  br label %21

16:                                               ; preds = %12, %2
  %17 = load i32, ptr %6, align 4, !tbaa !9
  %18 = and i32 %17, 4095
  %19 = zext i32 %18 to i64
  %20 = call ptr @PyLong_FromUnsignedLong(i64 noundef %19)
  store ptr %20, ptr %3, align 8
  store i32 1, ptr %7, align 4
  br label %21

21:                                               ; preds = %16, %15
  call void @llvm.lifetime.end.p0(i64 4, ptr %6) #4
  %22 = load ptr, ptr %3, align 8
  ret ptr %22
}