; Function Attrs: nounwind uwtable
define internal ptr @stat_S_IMODE(ptr readnone captures(none) %0, ptr noundef %1) #0 {
  %3 = tail call i64 @PyLong_AsUnsignedLong(ptr noundef %1) #3
  %4 = icmp eq i64 %3, -1
  br i1 %4, label %5, label %7

5:                                                ; preds = %2
  %6 = tail call ptr @PyErr_Occurred() #3
  %.not.i = icmp eq ptr %6, null
  br i1 %.not.i, label %.thread.i, label %_PyLong_AsMode_t.exit.thread

7:                                                ; preds = %2
  %.not6.i = icmp ult i64 %3, 4294967296
  br i1 %.not6.i, label %_PyLong_AsMode_t.exit, label %.thread.i

.thread.i:                                        ; preds = %7, %5
  %8 = load ptr, ptr @PyExc_OverflowError, align 8, !tbaa !4
  tail call void @PyErr_SetString(ptr noundef %8, ptr noundef nonnull @.str.15) #3
  br label %_PyLong_AsMode_t.exit.thread

_PyLong_AsMode_t.exit:                            ; preds = %7
  %9 = icmp eq i64 %3, 4294967295
  br i1 %9, label %_PyLong_AsMode_t.exit.thread, label %11

_PyLong_AsMode_t.exit.thread:                     ; preds = %5, %.thread.i, %_PyLong_AsMode_t.exit
  %10 = tail call ptr @PyErr_Occurred() #3
  %.not = icmp eq ptr %10, null
  br i1 %.not, label %11, label %14

11:                                               ; preds = %_PyLong_AsMode_t.exit.thread, %_PyLong_AsMode_t.exit
  %.0.i4 = phi i64 [ 4294967295, %_PyLong_AsMode_t.exit.thread ], [ %3, %_PyLong_AsMode_t.exit ]
  %12 = and i64 %.0.i4, 4095
  %13 = tail call ptr @PyLong_FromUnsignedLong(i64 noundef %12) #3
  br label %14

14:                                               ; preds = %_PyLong_AsMode_t.exit.thread, %11
  %.0 = phi ptr [ %13, %11 ], [ null, %_PyLong_AsMode_t.exit.thread ]
  ret ptr %.0
}